target datalayout = "e-m:e-p270:32:32-p271:32:32-p272:64:64-i64:64-i128:128-f80:128-n8:16:32:64-S128"
target triple = "x86_64-pc-linux-gnu"

%struct.quic_conn_st = type { %struct.quic_obj_st, ptr, ptr, ptr, ptr, ptr, ptr, ptr, ptr, %union.bio_addr_st, %struct.quic_thread_assist_st, i64, i16, i32, i32, i64, i32, i64, i32 }
%struct.quic_obj_st = type { %struct.ssl_st, ptr, ptr, ptr, ptr, ptr, i64, i8 }
%struct.ssl_st = type { i32, ptr, ptr, ptr, %struct.CRYPTO_REF_COUNT, ptr, %struct.crypto_ex_data_st }
%struct.CRYPTO_REF_COUNT = type { i32 }
%struct.crypto_ex_data_st = type { ptr, ptr }
%union.bio_addr_st = type { %struct.sockaddr_in6, [84 x i8] }
%struct.sockaddr_in6 = type { i16, i16, i32, %struct.in6_addr, i32 }
%struct.in6_addr = type { %union.anon }
%union.anon = type { [4 x i32] }
%struct.quic_thread_assist_st = type { ptr, ptr, ptr, i32, i32 }
%struct.qctx_st = type { ptr, ptr, ptr, ptr, ptr, i32, i32, i32, i32 }
%struct.quic_xso_st = type { %struct.quic_obj_st, ptr, ptr, i8, ptr, i64, i64, i32, i64, i32 }

; Function Attrs: inlinehint nounwind uwtable
define internal ptr @ossl_quic_obj_get0_engine(ptr noundef %0) #3 {
  %2 = alloca ptr, align 8
  store ptr %0, ptr %2, align 8, !tbaa !172
  %3 = load ptr, ptr %2, align 8, !tbaa !172
  %4 = getelementptr inbounds nuw %struct.quic_obj_st, ptr %3, i32 0, i32 4
  %5 = load ptr, ptr %4, align 8, !tbaa !168
  ret ptr %5
}

; Function Attrs: inlinehint nounwind uwtable
define internal ptr @ossl_quic_obj_get0_mutex(ptr noundef %0) #3 {
  %2 = alloca ptr, align 8
  store ptr %0, ptr %2, align 8, !tbaa !172
  %3 = load ptr, ptr %2, align 8, !tbaa !172
  %4 = call ptr @ossl_quic_obj_get0_engine(ptr noundef %3)
  %5 = call ptr @ossl_quic_engine_get0_mutex(ptr noundef %4)
  ret ptr %5
}

; Function Attrs: nounwind uwtable
define internal void @qctx_unlock(ptr noundef %0) #0 {
  %2 = alloca ptr, align 8
  store ptr %0, ptr %2, align 8, !tbaa !119
  %3 = load ptr, ptr %2, align 8, !tbaa !119
  %4 = getelementptr inbounds nuw %struct.qctx_st, ptr %3, i32 0, i32 0
  %5 = load ptr, ptr %4, align 8, !tbaa !166
  %6 = call ptr @ossl_quic_obj_get0_mutex(ptr noundef %5)
  call void @ossl_crypto_mutex_unlock(ptr noundef %6)
  ret void
}

; Function Attrs: nounwind uwtable
define internal i32 @error_to_want(i32 noundef %0) #0 {
  %2 = alloca i32, align 4
  %3 = alloca i32, align 4
  store i32 %0, ptr %3, align 4, !tbaa !122
  %4 = load i32, ptr %3, align 4, !tbaa !122
  switch i32 %4, label %6 [
    i32 7, label %5
    i32 8, label %5
    i32 6, label %5
    i32 2, label %7
    i32 3, label %8
    i32 12, label %9
    i32 11, label %10
    i32 4, label %11
  ]

5:                                                ; preds = %1, %1, %1
  br label %6

6:                                                ; preds = %1, %5
  store i32 1, ptr %2, align 4
  br label %12

7:                                                ; preds = %1
  store i32 3, ptr %2, align 4
  br label %12

8:                                                ; preds = %1
  store i32 2, ptr %2, align 4
  br label %12

9:                                                ; preds = %1
  store i32 8, ptr %2, align 4
  br label %12

10:                                               ; preds = %1
  store i32 7, ptr %2, align 4
  br label %12

11:                                               ; preds = %1
  store i32 4, ptr %2, align 4
  br label %12

12:                                               ; preds = %11, %10, %9, %8, %7, %6
  %13 = load i32, ptr %2, align 4
  ret i32 %13
}

; Function Attrs: nounwind uwtable
define internal void @qctx_lock(ptr noundef %0) #0 {
  %2 = alloca ptr, align 8
  store ptr %0, ptr %2, align 8, !tbaa !119
  %3 = load ptr, ptr %2, align 8, !tbaa !119
  %4 = getelementptr inbounds nuw %struct.qctx_st, ptr %3, i32 0, i32 0
  %5 = load ptr, ptr %4, align 8, !tbaa !166
  %6 = call ptr @ossl_quic_obj_get0_mutex(ptr noundef %5)
  call void @ossl_crypto_mutex_lock(ptr noundef %6)
  ret void
}

; Function Attrs: nounwind uwtable
define internal i32 @expect_quic_cs(ptr noundef %0, ptr noundef %1) #0 {
  %3 = alloca ptr, align 8
  %4 = alloca ptr, align 8
  store ptr %0, ptr %3, align 8, !tbaa !136
  store ptr %1, ptr %4, align 8, !tbaa !119
  %5 = load ptr, ptr %3, align 8, !tbaa !136
  %6 = load ptr, ptr %4, align 8, !tbaa !119
  %7 = call i32 @expect_quic_as(ptr noundef %5, ptr noundef %6, i32 noundef 3)
  ret i32 %7
}

; Function Attrs: nounwind uwtable
define i32 @ossl_quic_want(ptr noundef %0) #0 {
  %2 = alloca i32, align 4
  %3 = alloca ptr, align 8
  %4 = alloca %struct.qctx_st, align 8
  %5 = alloca i32, align 4
  %6 = alloca i32, align 4
  store ptr %0, ptr %3, align 8, !tbaa !136
  call void @llvm.lifetime.start.p0(i64 56, ptr %4) #10
  call void @llvm.lifetime.start.p0(i64 4, ptr %5) #10
  %7 = load ptr, ptr %3, align 8, !tbaa !136
  %8 = call i32 @expect_quic_cs(ptr noundef %7, ptr noundef %4)
  %9 = icmp ne i32 %8, 0
  br i1 %9, label %11, label %10

10:                                               ; preds = %1
  store i32 1, ptr %2, align 4
  store i32 1, ptr %6, align 4
  br label %29

11:                                               ; preds = %1
  call void @qctx_lock(ptr noundef %4)
  %12 = getelementptr inbounds nuw %struct.qctx_st, ptr %4, i32 0, i32 5
  %13 = load i32, ptr %12, align 8, !tbaa !139
  %14 = icmp ne i32 %13, 0
  br i1 %14, label %15, label %20

15:                                               ; preds = %11
  %16 = getelementptr inbounds nuw %struct.qctx_st, ptr %4, i32 0, i32 4
  %17 = load ptr, ptr %16, align 8, !tbaa !141
  %18 = getelementptr inbounds nuw %struct.quic_xso_st, ptr %17, i32 0, i32 9
  %19 = load i32, ptr %18, align 8, !tbaa !208
  br label %25

20:                                               ; preds = %11
  %21 = getelementptr inbounds nuw %struct.qctx_st, ptr %4, i32 0, i32 3
  %22 = load ptr, ptr %21, align 8, !tbaa !123
  %23 = getelementptr inbounds nuw %struct.quic_conn_st, ptr %22, i32 0, i32 18
  %24 = load i32, ptr %23, align 8, !tbaa !118
  br label %25

25:                                               ; preds = %20, %15
  %26 = phi i32 [ %19, %15 ], [ %24, %20 ]
  %27 = call i32 @error_to_want(i32 noundef %26)
  store i32 %27, ptr %5, align 4, !tbaa !122
  call void @qctx_unlock(ptr noundef %4)
  %28 = load i32, ptr %5, align 4, !tbaa !122
  store i32 %28, ptr %2, align 4
  store i32 1, ptr %6, align 4
  br label %29

29:                                               ; preds = %25, %10
  call void @llvm.lifetime.end.p0(i64 4, ptr %5) #10
  call void @llvm.lifetime.end.p0(i64 56, ptr %4) #10
  %30 = load i32, ptr %2, align 4
  ret i32 %30
}