; Function Attrs: nounwind uwtable
define range(i32 1, 9) i32 @ossl_quic_want(ptr noundef %0) local_unnamed_addr #0 {
  %2 = alloca %struct.qctx_st, align 8
  call void @llvm.lifetime.start.p0(i64 56, ptr nonnull %2) #12
  %3 = call fastcc range(i32 0, 2) i32 @expect_quic_as(ptr noundef %0, ptr noundef nonnull %2, i32 noundef 3)
  %.not = icmp eq i32 %3, 0
  br i1 %.not, label %20, label %4

4:                                                ; preds = %1
  %.val = load ptr, ptr %2, align 8, !tbaa !157
  %5 = getelementptr i8, ptr %.val, i64 88
  %.val.val = load ptr, ptr %5, align 8, !tbaa !143
  %6 = call ptr @ossl_quic_engine_get0_mutex(ptr noundef %.val.val) #12
  call void @ossl_crypto_mutex_lock(ptr noundef %6) #12
  %7 = getelementptr inbounds nuw i8, ptr %2, i64 40
  %8 = load i32, ptr %7, align 8, !tbaa !129
  %.not2 = icmp eq i32 %8, 0
  %9 = getelementptr inbounds nuw i8, ptr %2, i64 32
  %10 = load ptr, ptr %9, align 8
  %11 = getelementptr inbounds nuw i8, ptr %10, i64 184
  %12 = getelementptr inbounds nuw i8, ptr %2, i64 24
  %13 = load ptr, ptr %12, align 8
  %14 = getelementptr inbounds nuw i8, ptr %13, i64 376
  %.in = select i1 %.not2, ptr %14, ptr %11
  %15 = load i32, ptr %.in, align 8, !tbaa !166
  %switch.tableidx = add i32 %15, -2
  %16 = icmp ult i32 %switch.tableidx, 11
  br i1 %16, label %switch.lookup, label %error_to_want.exit

switch.lookup:                                    ; preds = %4
  %17 = zext nneg i32 %switch.tableidx to i64
  %switch.gep = getelementptr inbounds nuw [11 x i32], ptr @switch.table.ossl_quic_want, i64 0, i64 %17
  %switch.load = load i32, ptr %switch.gep, align 4
  br label %error_to_want.exit

error_to_want.exit:                               ; preds = %switch.lookup, %4
  %.0.i = phi i32 [ 1, %4 ], [ %switch.load, %switch.lookup ]
  %.val3 = load ptr, ptr %2, align 8, !tbaa !157
  %18 = getelementptr i8, ptr %.val3, i64 88
  %.val3.val = load ptr, ptr %18, align 8, !tbaa !143
  %19 = call ptr @ossl_quic_engine_get0_mutex(ptr noundef %.val3.val) #12
  call void @ossl_crypto_mutex_unlock(ptr noundef %19) #12
  br label %20

20:                                               ; preds = %1, %error_to_want.exit
  %.0 = phi i32 [ %.0.i, %error_to_want.exit ], [ 1, %1 ]
  call void @llvm.lifetime.end.p0(i64 56, ptr nonnull %2) #12
  ret i32 %.0
}